; Function Attrs: mustprogress uwtable
define dso_local void @_ZN35cmGeneratorExpressionEvaluationFile17GetOutputFileNameEP16cmLocalGeneratorP17cmGeneratorTargetRKNSt7__cxx1112basic_stringIcSt11char_traitsIcESaIcEEESB_(ptr dead_on_unwind noalias writable sret(%"class.std::__cxx11::basic_string") align 8 %0, ptr noundef nonnull readonly align 8 captures(none) dereferenceable(152) %1, ptr noundef %2, ptr noundef %3, ptr noundef nonnull align 8 dereferenceable(32) %4, ptr noundef nonnull align 8 dereferenceable(32) %5) local_unnamed_addr #4 align 2 personality ptr @__gxx_personality_v0 {
  %7 = alloca %"class.std::__cxx11::basic_string", align 8
  %8 = alloca %"class.std::__cxx11::basic_string", align 8
  %9 = getelementptr inbounds nuw i8, ptr %1, i64 64
  %10 = load ptr, ptr %9, align 8
  %11 = tail call noundef nonnull align 8 dereferenceable(32) ptr @_ZNK29cmCompiledGeneratorExpression8EvaluateEP16cmLocalGeneratorRKNSt7__cxx1112basic_stringIcSt11char_traitsIcESaIcEEEPK17cmGeneratorTargetP31cmGeneratorExpressionDAGCheckerSC_S9_(ptr noundef nonnull align 8 dereferenceable(360) %10, ptr noundef %2, ptr noundef nonnull align 8 dereferenceable(32) %4, ptr noundef %3, ptr noundef null, ptr noundef null, ptr noundef nonnull align 8 dereferenceable(32) %5)
  tail call void @_ZNSt7__cxx1112basic_stringIcSt11char_traitsIcESaIcEEC1ERKS4_(ptr noundef nonnull align 8 dereferenceable(32) %0, ptr noundef nonnull align 8 dereferenceable(32) %11)
  %12 = invoke noundef zeroext i1 @_ZN5cmsys11SystemTools14FileIsFullPathERKNSt7__cxx1112basic_stringIcSt11char_traitsIcESaIcEEE(ptr noundef nonnull align 8 dereferenceable(32) %0)
          to label %13 unwind label %15

13:                                               ; preds = %6
  br i1 %12, label %14, label %17

14:                                               ; preds = %13
  invoke void @_ZN5cmsys11SystemTools16CollapseFullPathERKNSt7__cxx1112basic_stringIcSt11char_traitsIcESaIcEEE(ptr dead_on_unwind nonnull writable sret(%"class.std::__cxx11::basic_string") align 8 %7, ptr noundef nonnull align 8 dereferenceable(32) %0)
          to label %18 unwind label %15

15:                                               ; preds = %17, %14, %6
  %16 = landingpad { ptr, i32 }
          cleanup
  call void @_ZNSt7__cxx1112basic_stringIcSt11char_traitsIcESaIcEED1Ev(ptr noundef nonnull align 8 dereferenceable(32) %0) #19
  resume { ptr, i32 } %16

17:                                               ; preds = %13
  invoke void @_ZN35cmGeneratorExpressionEvaluationFile15FixRelativePathERKNSt7__cxx1112basic_stringIcSt11char_traitsIcESaIcEEENS_8PathRoleEP16cmLocalGenerator(ptr dead_on_unwind nonnull writable sret(%"class.std::__cxx11::basic_string") align 8 %8, ptr noundef nonnull align 8 dereferenceable(152) %1, ptr noundef nonnull align 8 dereferenceable(32) %0, i32 noundef 1, ptr noundef %2)
          to label %18 unwind label %15

18:                                               ; preds = %17, %14
  %.sink8 = phi ptr [ %7, %14 ], [ %8, %17 ]
  %19 = call noundef nonnull align 8 dereferenceable(32) ptr @_ZNSt7__cxx1112basic_stringIcSt11char_traitsIcESaIcEEaSEOS4_(ptr noundef nonnull align 8 dereferenceable(32) %0, ptr noundef nonnull align 8 dereferenceable(32) %.sink8) #19
  call void @_ZNSt7__cxx1112basic_stringIcSt11char_traitsIcESaIcEED1Ev(ptr noundef nonnull align 8 dereferenceable(32) %.sink8) #19
  ret void
}